target datalayout = "e-m:e-p270:32:32-p271:32:32-p272:64:64-i64:64-i128:128-f80:128-n8:16:32:64-S128"
target triple = "x86_64-pc-linux-gnu"

%"class.Luau::CodeGen::BaseCodeGenContext" = type { ptr, %"struct.Luau::CodeGen::CodeAllocator", %"class.std::unique_ptr", ptr, i64, ptr, ptr, %"struct.Luau::CodeGen::NativeContext" }
%"struct.Luau::CodeGen::CodeAllocator" = type { ptr, ptr, ptr, ptr, ptr, %"class.std::vector", %"class.std::vector.0", i64, i64, ptr, ptr }
%"class.std::vector" = type { %"struct.std::_Vector_base" }
%"struct.std::_Vector_base" = type { %"struct.std::_Vector_base<unsigned char *, std::allocator<unsigned char *>>::_Vector_impl" }
%"struct.std::_Vector_base<unsigned char *, std::allocator<unsigned char *>>::_Vector_impl" = type { %"struct.std::_Vector_base<unsigned char *, std::allocator<unsigned char *>>::_Vector_impl_data" }
%"struct.std::_Vector_base<unsigned char *, std::allocator<unsigned char *>>::_Vector_impl_data" = type { ptr, ptr, ptr }
%"class.std::vector.0" = type { %"struct.std::_Vector_base.1" }
%"struct.std::_Vector_base.1" = type { %"struct.std::_Vector_base<void *, std::allocator<void *>>::_Vector_impl" }
%"struct.std::_Vector_base<void *, std::allocator<void *>>::_Vector_impl" = type { %"struct.std::_Vector_base<void *, std::allocator<void *>>::_Vector_impl_data" }
%"struct.std::_Vector_base<void *, std::allocator<void *>>::_Vector_impl_data" = type { ptr, ptr, ptr }
%"class.std::unique_ptr" = type { %"struct.std::__uniq_ptr_data" }
%"struct.std::__uniq_ptr_data" = type { %"class.std::__uniq_ptr_impl" }
%"class.std::__uniq_ptr_impl" = type { %"class.std::tuple" }
%"class.std::tuple" = type { %"struct.std::_Tuple_impl" }
%"struct.std::_Tuple_impl" = type { %"struct.std::_Head_base.6" }
%"struct.std::_Head_base.6" = type { ptr }
%"struct.Luau::CodeGen::NativeContext" = type { ptr, ptr, ptr, ptr, ptr, ptr, ptr, ptr, ptr, ptr, ptr, ptr, ptr, ptr, ptr, ptr, ptr, ptr, ptr, ptr, ptr, ptr, ptr, ptr, ptr, ptr, ptr, ptr, ptr, ptr, ptr, ptr, ptr, ptr, ptr, ptr, ptr, ptr, ptr, ptr, ptr, ptr, ptr, ptr, ptr, ptr, ptr, ptr, ptr, ptr, ptr, ptr, ptr, ptr, ptr, ptr, ptr, ptr, ptr, ptr, ptr, ptr, ptr, ptr, ptr, ptr, ptr, ptr, ptr, ptr, ptr, [256 x ptr] }

@_ZTVN4Luau7CodeGen18BaseCodeGenContextE = linkonce_odr dso_local unnamed_addr constant { [6 x ptr] } { [6 x ptr] [ptr null, ptr @_ZTIN4Luau7CodeGen18BaseCodeGenContextE, ptr @__cxa_pure_virtual, ptr @__cxa_pure_virtual, ptr @__cxa_pure_virtual, ptr @__cxa_pure_virtual] }, comdat, align 8

; Function Attrs: mustprogress nounwind uwtable
define linkonce_odr dso_local noundef nonnull align 1 dereferenceable(1) ptr @_ZNSt10_Head_baseILm1ESt14default_deleteIN4Luau7CodeGen13UnwindBuilderEELb1EE7_M_headERS5_(ptr noundef nonnull align 1 dereferenceable(1) %0) #1 comdat align 2 {
  %2 = alloca ptr, align 8
  store ptr %0, ptr %2, align 8, !tbaa !313
  %3 = load ptr, ptr %2, align 8, !tbaa !313
  ret ptr %3
}

; Function Attrs: mustprogress nounwind uwtable
define linkonce_odr dso_local noundef nonnull align 1 dereferenceable(1) ptr @_ZNSt11_Tuple_implILm1EJSt14default_deleteIN4Luau7CodeGen13UnwindBuilderEEEE7_M_headERS5_(ptr noundef nonnull align 1 dereferenceable(1) %0) #1 comdat align 2 {
  %2 = alloca ptr, align 8
  store ptr %0, ptr %2, align 8, !tbaa !308
  %3 = load ptr, ptr %2, align 8, !tbaa !308
  %4 = call noundef nonnull align 1 dereferenceable(1) ptr @_ZNSt10_Head_baseILm1ESt14default_deleteIN4Luau7CodeGen13UnwindBuilderEELb1EE7_M_headERS5_(ptr noundef nonnull align 1 dereferenceable(1) %3) #17
  ret ptr %4
}

; Function Attrs: mustprogress nounwind uwtable
define linkonce_odr dso_local noundef nonnull align 8 dereferenceable(8) ptr @_ZNSt10_Head_baseILm0EPN4Luau7CodeGen13UnwindBuilderELb0EE7_M_headERS4_(ptr noundef nonnull align 8 dereferenceable(8) %0) #1 comdat align 2 {
  %2 = alloca ptr, align 8
  store ptr %0, ptr %2, align 8, !tbaa !310
  %3 = load ptr, ptr %2, align 8, !tbaa !310
  %4 = getelementptr inbounds nuw %"struct.std::_Head_base.6", ptr %3, i32 0, i32 0
  ret ptr %4
}

; Function Attrs: mustprogress nounwind uwtable
define linkonce_odr dso_local noundef nonnull align 1 dereferenceable(1) ptr @_ZSt12__get_helperILm1ESt14default_deleteIN4Luau7CodeGen13UnwindBuilderEEJEERT0_RSt11_Tuple_implIXT_EJS5_DpT1_EE(ptr noundef nonnull align 1 dereferenceable(1) %0) #1 comdat {
  %2 = alloca ptr, align 8
  store ptr %0, ptr %2, align 8, !tbaa !308
  %3 = load ptr, ptr %2, align 8, !tbaa !308
  %4 = call noundef nonnull align 1 dereferenceable(1) ptr @_ZNSt11_Tuple_implILm1EJSt14default_deleteIN4Luau7CodeGen13UnwindBuilderEEEE7_M_headERS5_(ptr noundef nonnull align 1 dereferenceable(1) %3) #17
  ret ptr %4
}

; Function Attrs: mustprogress nounwind uwtable
define linkonce_odr dso_local noundef nonnull align 8 dereferenceable(8) ptr @_ZNSt11_Tuple_implILm0EJPN4Luau7CodeGen13UnwindBuilderESt14default_deleteIS2_EEE7_M_headERS6_(ptr noundef nonnull align 8 dereferenceable(8) %0) #1 comdat align 2 {
  %2 = alloca ptr, align 8
  store ptr %0, ptr %2, align 8, !tbaa !306
  %3 = load ptr, ptr %2, align 8, !tbaa !306
  %4 = call noundef nonnull align 8 dereferenceable(8) ptr @_ZNSt10_Head_baseILm0EPN4Luau7CodeGen13UnwindBuilderELb0EE7_M_headERS4_(ptr noundef nonnull align 8 dereferenceable(8) %3) #17
  ret ptr %4
}

; Function Attrs: mustprogress nounwind uwtable
define linkonce_odr dso_local noundef nonnull align 1 dereferenceable(1) ptr @_ZSt3getILm1EJPN4Luau7CodeGen13UnwindBuilderESt14default_deleteIS2_EEERNSt13tuple_elementIXT_ESt5tupleIJDpT0_EEE4typeERSA_(ptr noundef nonnull align 8 dereferenceable(8) %0) #1 comdat {
  %2 = alloca ptr, align 8
  store ptr %0, ptr %2, align 8, !tbaa !304
  %3 = load ptr, ptr %2, align 8, !tbaa !304
  %4 = call noundef nonnull align 1 dereferenceable(1) ptr @_ZSt12__get_helperILm1ESt14default_deleteIN4Luau7CodeGen13UnwindBuilderEEJEERT0_RSt11_Tuple_implIXT_EJS5_DpT1_EE(ptr noundef nonnull align 1 dereferenceable(1) %3) #17
  ret ptr %4
}

; Function Attrs: mustprogress nounwind uwtable
define linkonce_odr dso_local noundef nonnull align 8 dereferenceable(8) ptr @_ZSt12__get_helperILm0EPN4Luau7CodeGen13UnwindBuilderEJSt14default_deleteIS2_EEERT0_RSt11_Tuple_implIXT_EJS6_DpT1_EE(ptr noundef nonnull align 8 dereferenceable(8) %0) #1 comdat {
  %2 = alloca ptr, align 8
  store ptr %0, ptr %2, align 8, !tbaa !306
  %3 = load ptr, ptr %2, align 8, !tbaa !306
  %4 = call noundef nonnull align 8 dereferenceable(8) ptr @_ZNSt11_Tuple_implILm0EJPN4Luau7CodeGen13UnwindBuilderESt14default_deleteIS2_EEE7_M_headERS6_(ptr noundef nonnull align 8 dereferenceable(8) %3) #17
  ret ptr %4
}

; Function Attrs: mustprogress nounwind uwtable
define linkonce_odr dso_local noundef nonnull align 1 dereferenceable(1) ptr @_ZNSt15__uniq_ptr_implIN4Luau7CodeGen13UnwindBuilderESt14default_deleteIS2_EE10_M_deleterEv(ptr noundef nonnull align 8 dereferenceable(8) %0) #1 comdat align 2 {
  %2 = alloca ptr, align 8
  store ptr %0, ptr %2, align 8, !tbaa !302
  %3 = load ptr, ptr %2, align 8
  %4 = getelementptr inbounds nuw %"class.std::__uniq_ptr_impl", ptr %3, i32 0, i32 0
  %5 = call noundef nonnull align 1 dereferenceable(1) ptr @_ZSt3getILm1EJPN4Luau7CodeGen13UnwindBuilderESt14default_deleteIS2_EEERNSt13tuple_elementIXT_ESt5tupleIJDpT0_EEE4typeERSA_(ptr noundef nonnull align 8 dereferenceable(8) %4) #17
  ret ptr %5
}

; Function Attrs: mustprogress nounwind uwtable
define linkonce_odr dso_local noundef nonnull align 8 dereferenceable(8) ptr @_ZSt3getILm0EJPN4Luau7CodeGen13UnwindBuilderESt14default_deleteIS2_EEERNSt13tuple_elementIXT_ESt5tupleIJDpT0_EEE4typeERSA_(ptr noundef nonnull align 8 dereferenceable(8) %0) #1 comdat {
  %2 = alloca ptr, align 8
  store ptr %0, ptr %2, align 8, !tbaa !304
  %3 = load ptr, ptr %2, align 8, !tbaa !304
  %4 = call noundef nonnull align 8 dereferenceable(8) ptr @_ZSt12__get_helperILm0EPN4Luau7CodeGen13UnwindBuilderEJSt14default_deleteIS2_EEERT0_RSt11_Tuple_implIXT_EJS6_DpT1_EE(ptr noundef nonnull align 8 dereferenceable(8) %3) #17
  ret ptr %4
}

; Function Attrs: noinline noreturn nounwind uwtable
define linkonce_odr hidden void @__clang_call_terminate(ptr noundef %0) #13 comdat {
  %2 = call ptr @__cxa_begin_catch(ptr %0) #17
  call void @_ZSt9terminatev() #19
  unreachable
}

; Function Attrs: mustprogress nounwind uwtable
define linkonce_odr dso_local void @_ZNKSt14default_deleteIN4Luau7CodeGen13UnwindBuilderEEclEPS2_(ptr noundef nonnull align 1 dereferenceable(1) %0, ptr noundef %1) #1 comdat align 2 {
  %3 = alloca ptr, align 8
  %4 = alloca ptr, align 8
  store ptr %0, ptr %3, align 8, !tbaa !915
  store ptr %1, ptr %4, align 8, !tbaa !138
  %5 = load ptr, ptr %4, align 8, !tbaa !138
  %6 = icmp eq ptr %5, null
  br i1 %6, label %11, label %7

7:                                                ; preds = %2
  %8 = load ptr, ptr %5, align 8, !tbaa !27
  %9 = getelementptr inbounds ptr, ptr %8, i64 1
  %10 = load ptr, ptr %9, align 8
  call void %10(ptr noundef nonnull align 8 dereferenceable(8) %5) #17
  br label %11

11:                                               ; preds = %7, %2
  ret void
}

; Function Attrs: mustprogress nounwind uwtable
define linkonce_odr dso_local noundef nonnull align 1 dereferenceable(1) ptr @_ZNSt10unique_ptrIN4Luau7CodeGen13UnwindBuilderESt14default_deleteIS2_EE11get_deleterEv(ptr noundef nonnull align 8 dereferenceable(8) %0) #1 comdat align 2 {
  %2 = alloca ptr, align 8
  store ptr %0, ptr %2, align 8, !tbaa !56
  %3 = load ptr, ptr %2, align 8
  %4 = getelementptr inbounds nuw %"class.std::unique_ptr", ptr %3, i32 0, i32 0
  %5 = call noundef nonnull align 1 dereferenceable(1) ptr @_ZNSt15__uniq_ptr_implIN4Luau7CodeGen13UnwindBuilderESt14default_deleteIS2_EE10_M_deleterEv(ptr noundef nonnull align 8 dereferenceable(8) %4) #17
  ret ptr %5
}

; Function Attrs: mustprogress nounwind uwtable
define linkonce_odr dso_local noundef nonnull align 8 dereferenceable(8) ptr @_ZNSt15__uniq_ptr_implIN4Luau7CodeGen13UnwindBuilderESt14default_deleteIS2_EE6_M_ptrEv(ptr noundef nonnull align 8 dereferenceable(8) %0) #1 comdat align 2 {
  %2 = alloca ptr, align 8
  store ptr %0, ptr %2, align 8, !tbaa !302
  %3 = load ptr, ptr %2, align 8
  %4 = getelementptr inbounds nuw %"class.std::__uniq_ptr_impl", ptr %3, i32 0, i32 0
  %5 = call noundef nonnull align 8 dereferenceable(8) ptr @_ZSt3getILm0EJPN4Luau7CodeGen13UnwindBuilderESt14default_deleteIS2_EEERNSt13tuple_elementIXT_ESt5tupleIJDpT0_EEE4typeERSA_(ptr noundef nonnull align 8 dereferenceable(8) %4) #17
  ret ptr %5
}

; Function Attrs: mustprogress nounwind uwtable
define linkonce_odr dso_local void @_ZNSt10unique_ptrIN4Luau7CodeGen13UnwindBuilderESt14default_deleteIS2_EED2Ev(ptr noundef nonnull align 8 dereferenceable(8) %0) unnamed_addr #1 comdat align 2 personality ptr @__gxx_personality_v0 {
  %2 = alloca ptr, align 8
  %3 = alloca ptr, align 8
  store ptr %0, ptr %2, align 8, !tbaa !56
  %4 = load ptr, ptr %2, align 8
  call void @llvm.lifetime.start.p0(i64 8, ptr %3) #17
  %5 = getelementptr inbounds nuw %"class.std::unique_ptr", ptr %4, i32 0, i32 0
  %6 = call noundef nonnull align 8 dereferenceable(8) ptr @_ZNSt15__uniq_ptr_implIN4Luau7CodeGen13UnwindBuilderESt14default_deleteIS2_EE6_M_ptrEv(ptr noundef nonnull align 8 dereferenceable(8) %5) #17
  store ptr %6, ptr %3, align 8, !tbaa !136
  %7 = load ptr, ptr %3, align 8, !tbaa !136
  %8 = load ptr, ptr %7, align 8, !tbaa !138
  %9 = icmp ne ptr %8, null
  br i1 %9, label %10, label %15

10:                                               ; preds = %1
  %11 = call noundef nonnull align 1 dereferenceable(1) ptr @_ZNSt10unique_ptrIN4Luau7CodeGen13UnwindBuilderESt14default_deleteIS2_EE11get_deleterEv(ptr noundef nonnull align 8 dereferenceable(8) %4) #17
  %12 = load ptr, ptr %3, align 8, !tbaa !136
  %13 = load ptr, ptr %12, align 8, !tbaa !138
  invoke void @_ZNKSt14default_deleteIN4Luau7CodeGen13UnwindBuilderEEclEPS2_(ptr noundef nonnull align 1 dereferenceable(1) %11, ptr noundef %13)
          to label %14 unwind label %17

14:                                               ; preds = %10
  br label %15

15:                                               ; preds = %14, %1
  %16 = load ptr, ptr %3, align 8, !tbaa !136
  store ptr null, ptr %16, align 8, !tbaa !138
  call void @llvm.lifetime.end.p0(i64 8, ptr %3) #17
  ret void

17:                                               ; preds = %10
  %18 = landingpad { ptr, i32 }
          catch ptr null
  %19 = extractvalue { ptr, i32 } %18, 0
  call void @__clang_call_terminate(ptr %19) #19
  unreachable
}

; Function Attrs: inlinehint mustprogress nounwind uwtable
define linkonce_odr dso_local void @_ZN4Luau7CodeGen18BaseCodeGenContextD2Ev(ptr noundef nonnull align 8 dereferenceable(2784) %0) unnamed_addr #4 comdat align 2 {
  %2 = alloca ptr, align 8
  store ptr %0, ptr %2, align 8, !tbaa !23
  %3 = load ptr, ptr %2, align 8
  store ptr getelementptr inbounds inrange(-16, 32) ({ [6 x ptr] }, ptr @_ZTVN4Luau7CodeGen18BaseCodeGenContextE, i32 0, i32 0, i32 2), ptr %3, align 8, !tbaa !27
  %4 = getelementptr inbounds nuw %"class.Luau::CodeGen::BaseCodeGenContext", ptr %3, i32 0, i32 2
  call void @_ZNSt10unique_ptrIN4Luau7CodeGen13UnwindBuilderESt14default_deleteIS2_EED2Ev(ptr noundef nonnull align 8 dereferenceable(8) %4) #17
  %5 = getelementptr inbounds nuw %"class.Luau::CodeGen::BaseCodeGenContext", ptr %3, i32 0, i32 1
  call void @_ZN4Luau7CodeGen13CodeAllocatorD1Ev(ptr noundef nonnull align 8 dereferenceable(120) %5) #17
  ret void
}

; Function Attrs: mustprogress nounwind uwtable
define dso_local void @_ZN4Luau7CodeGen24StandaloneCodeGenContext12onCloseStateEv(ptr noundef nonnull align 8 dereferenceable(2784) %0) unnamed_addr #1 align 2 {
  %2 = alloca ptr, align 8
  store ptr %0, ptr %2, align 8, !tbaa !140
  %3 = load ptr, ptr %2, align 8
  %4 = icmp eq ptr %3, null
  br i1 %4, label %6, label %5

5:                                                ; preds = %1
  call void @_ZN4Luau7CodeGen18BaseCodeGenContextD2Ev(ptr noundef nonnull align 8 dereferenceable(2784) %3) #17
  call void @_ZdlPvm(ptr noundef %3, i64 noundef 2784) #20
  br label %6

6:                                                ; preds = %5, %1
  ret void
}