; Function Attrs: mustprogress nounwind uwtable
define dso_local void @_ZN4Luau7CodeGen24StandaloneCodeGenContext12onCloseStateEv(ptr noundef nonnull align 8 dereferenceable(2784) initializes((0, 8)) %0) unnamed_addr #7 align 2 personality ptr @__gxx_personality_v0 {
  store ptr getelementptr inbounds nuw inrange(-16, 32) (i8, ptr @_ZTVN4Luau7CodeGen18BaseCodeGenContextE, i64 16), ptr %0, align 8, !tbaa !8
  %2 = getelementptr inbounds nuw i8, ptr %0, i64 128
  %3 = load ptr, ptr %2, align 8, !tbaa !24
  %.not.i.i = icmp eq ptr %3, null
  br i1 %.not.i.i, label %_ZN4Luau7CodeGen18BaseCodeGenContextD2Ev.exit, label %_ZNKSt14default_deleteIN4Luau7CodeGen13UnwindBuilderEEclEPS2_.exit.i.i

_ZNKSt14default_deleteIN4Luau7CodeGen13UnwindBuilderEEclEPS2_.exit.i.i: ; preds = %1
  %4 = load ptr, ptr %3, align 8, !tbaa !8
  %5 = getelementptr inbounds nuw i8, ptr %4, i64 8
  %6 = load ptr, ptr %5, align 8
  tail call void %6(ptr noundef nonnull align 8 dereferenceable(8) %3) #24
  br label %_ZN4Luau7CodeGen18BaseCodeGenContextD2Ev.exit

_ZN4Luau7CodeGen18BaseCodeGenContextD2Ev.exit:    ; preds = %1, %_ZNKSt14default_deleteIN4Luau7CodeGen13UnwindBuilderEEclEPS2_.exit.i.i
  store ptr null, ptr %2, align 8, !tbaa !24
  %7 = getelementptr inbounds nuw i8, ptr %0, i64 8
  tail call void @_ZN4Luau7CodeGen13CodeAllocatorD1Ev(ptr noundef nonnull align 8 dereferenceable(120) %7) #24
  tail call void @_ZdlPvm(ptr noundef nonnull %0, i64 noundef 2784) #25
  ret void
}